; Function Attrs: mustprogress nofree norecurse nosync nounwind willreturn memory(read, inaccessiblemem: none) uwtable
define noundef range(i32 -7, 1) i32 @_ZN5boost9iostreams6detail10bzip2_base9check_endEPKcS4_(ptr nocapture noundef nonnull readonly align 8 dereferenceable(17) %0, ptr noundef readnone %1, ptr noundef readnone %2) local_unnamed_addr #11 align 2 {
  %4 = getelementptr inbounds nuw i8, ptr %0, i64 8
  %5 = load ptr, ptr %4, align 8, !tbaa !23
  %6 = load ptr, ptr %5, align 8, !tbaa !28
  %7 = icmp eq ptr %1, %6
  br i1 %7, label %8, label %16

8:                                                ; preds = %3
  %9 = getelementptr inbounds nuw i8, ptr %5, i64 8
  %10 = load i32, ptr %9, align 8, !tbaa !30
  %11 = icmp eq i32 %10, 0
  br i1 %11, label %12, label %16

12:                                               ; preds = %8
  %13 = getelementptr inbounds nuw i8, ptr %5, i64 24
  %14 = load ptr, ptr %13, align 8, !tbaa !31
  %15 = icmp eq ptr %2, %14
  br i1 %15, label %17, label %16

16:                                               ; preds = %12, %8, %3
  br label %17

17:                                               ; preds = %12, %16
  %.0 = phi i32 [ 0, %16 ], [ -7, %12 ]
  ret i32 %.0
}